target datalayout = "e-m:e-p270:32:32-p271:32:32-p272:64:64-i64:64-i128:128-f80:128-n8:16:32:64-S128"
target triple = "x86_64-unknown-linux-gnu"

%"struct.icu_75::FormattedStringBuilder::Field" = type { i8 }
%"class.icu_75::FormattedValueStringBuilderImpl" = type <{ %"class.icu_75::FormattedValue", %"class.icu_75::FormattedStringBuilder", %"struct.icu_75::FormattedStringBuilder::Field", [7 x i8], %"class.icu_75::MaybeStackArray.2", i32, [4 x i8] }>
%"class.icu_75::FormattedValue" = type { ptr }
%"class.icu_75::FormattedStringBuilder" = type { i8, %"union.icu_75::FormattedStringBuilder::ValueOrHeapArray", %"union.icu_75::FormattedStringBuilder::ValueOrHeapArray.0", i32, i32 }
%"union.icu_75::FormattedStringBuilder::ValueOrHeapArray" = type { %struct.anon, [64 x i8] }
%struct.anon = type { ptr, i32 }
%"union.icu_75::FormattedStringBuilder::ValueOrHeapArray.0" = type { %struct.anon.1, [24 x i8] }
%struct.anon.1 = type { ptr, i32 }
%"class.icu_75::MaybeStackArray.2" = type { ptr, i32, i8, [8 x %"struct.icu_75::SpanInfo"] }
%"struct.icu_75::SpanInfo" = type { i32, i32, i32, i32 }

; Function Attrs: mustprogress uwtable
define noundef nonnull align 8 dereferenceable(8) ptr @_ZNK6icu_7531FormattedValueStringBuilderImpl8appendToERNS_10AppendableER10UErrorCode(ptr noundef nonnull align 8 dereferenceable(300) %this, ptr noundef nonnull align 8 dereferenceable(8) %appendable, ptr noundef nonnull align 4 dereferenceable(4) %0) unnamed_addr #1 align 2 {
entry:
  %this.addr = alloca ptr, align 8
  %appendable.addr = alloca ptr, align 8
  %.addr = alloca ptr, align 8
  store ptr %this, ptr %this.addr, align 8
  store ptr %appendable, ptr %appendable.addr, align 8
  store ptr %0, ptr %.addr, align 8
  %this1 = load ptr, ptr %this.addr, align 8
  %1 = load ptr, ptr %appendable.addr, align 8
  %fString = getelementptr inbounds %"class.icu_75::FormattedValueStringBuilderImpl", ptr %this1, i32 0, i32 1
  %call = call noundef ptr @_ZNK6icu_7522FormattedStringBuilder5charsEv(ptr noundef nonnull align 8 dereferenceable(136) %fString)
  %fString2 = getelementptr inbounds %"class.icu_75::FormattedValueStringBuilderImpl", ptr %this1, i32 0, i32 1
  %call3 = call noundef i32 @_ZNK6icu_7522FormattedStringBuilder6lengthEv(ptr noundef nonnull align 8 dereferenceable(136) %fString2)
  %vtable = load ptr, ptr %1, align 8
  %vfn = getelementptr inbounds ptr, ptr %vtable, i64 5
  %2 = load ptr, ptr %vfn, align 8
  %call4 = call noundef signext i8 %2(ptr noundef nonnull align 8 dereferenceable(8) %1, ptr noundef %call, i32 noundef %call3)
  %3 = load ptr, ptr %appendable.addr, align 8
  ret ptr %3
}