; Function Attrs: mustprogress uwtable
define noundef nonnull align 8 dereferenceable(8) ptr @_ZNK6icu_7531FormattedValueStringBuilderImpl8appendToERNS_10AppendableER10UErrorCode(ptr noundef nonnull align 8 dereferenceable(300) %this, ptr noundef nonnull returned align 8 dereferenceable(8) %appendable, ptr nocapture nonnull readnone align 4 %0) unnamed_addr #1 align 2 {
entry:
  %fString = getelementptr inbounds i8, ptr %this, i64 8
  %call = tail call noundef ptr @_ZNK6icu_7522FormattedStringBuilder5charsEv(ptr noundef nonnull align 8 dereferenceable(136) %fString)
  %call3 = tail call noundef i32 @_ZNK6icu_7522FormattedStringBuilder6lengthEv(ptr noundef nonnull align 8 dereferenceable(136) %fString)
  %vtable = load ptr, ptr %appendable, align 8
  %vfn = getelementptr inbounds i8, ptr %vtable, i64 40
  %1 = load ptr, ptr %vfn, align 8
  %call4 = tail call noundef signext i8 %1(ptr noundef nonnull align 8 dereferenceable(8) %appendable, ptr noundef %call, i32 noundef %call3)
  ret ptr %appendable
}